target datalayout = "e-m:e-p270:32:32-p271:32:32-p272:64:64-i64:64-i128:128-f80:128-n8:16:32:64-S128"
target triple = "x86_64-pc-linux-gnu"

%struct.lua_State = type { %struct.GCRef, i8, i8, i8, i8, %struct.MRef, %struct.GCRef, ptr, ptr, %struct.MRef, %struct.MRef, %struct.GCRef, %struct.GCRef, ptr, i32 }
%struct.MRef = type { i64 }
%struct.GCRef = type { i64 }
%union.TValue = type { i64 }
%struct.global_State = type { ptr, ptr, %struct.GCState, %struct.GCstr, i8, i8, i8, i8, %struct.StrInternState, i32, %struct.GCRef, %struct.SBuf, %union.TValue, %union.TValue, %struct.Node, %union.TValue, %struct.GCupval, i32, i32, ptr, ptr, ptr, i32, i32, %struct.GCRef, %struct.MRef, %struct.MRef, %struct.PRNGState, [39 x %struct.GCRef] }
%struct.GCState = type { i64, i64, i8, i8, i8, i8, i32, %struct.GCRef, %struct.MRef, %struct.GCRef, %struct.GCRef, %struct.GCRef, %struct.GCRef, i64, i64, i32, i32, %struct.MRef }
%struct.GCstr = type { %struct.GCRef, i8, i8, i8, i8, i32, i32, i32 }
%struct.StrInternState = type { ptr, i32, i32, i32, i8, i8, i8, i8, i64 }
%struct.SBuf = type { ptr, ptr, ptr, %struct.MRef }
%struct.Node = type { %union.TValue, %union.TValue, %struct.MRef }
%struct.GCupval = type { %struct.GCRef, i8, i8, i8, i8, %union.anon, %struct.MRef, i32 }
%union.anon = type { %struct.anon.1 }
%struct.anon.1 = type { %struct.GCRef, %struct.GCRef }
%struct.PRNGState = type { [4 x i64] }

@.str.7 = private unnamed_addr constant [24 x i8] c"store to dead GC object\00", align 1

; Function Attrs: alwaysinline nounwind uwtable
define internal void @checklivetv(ptr noundef %0, ptr noundef %1, ptr noundef %2) #2 {
  %4 = alloca ptr, align 8
  %5 = alloca ptr, align 8
  %6 = alloca ptr, align 8
  store ptr %0, ptr %4, align 8, !tbaa !4
  store ptr %1, ptr %5, align 8, !tbaa !20
  store ptr %2, ptr %6, align 8, !tbaa !23
  ret void
}

; Function Attrs: alwaysinline nounwind uwtable
define internal void @setgcVraw(ptr noundef %0, ptr noundef %1, i32 noundef %2) #2 {
  %4 = alloca ptr, align 8
  %5 = alloca ptr, align 8
  %6 = alloca i32, align 4
  store ptr %0, ptr %4, align 8, !tbaa !20
  store ptr %1, ptr %5, align 8, !tbaa !55
  store i32 %2, ptr %6, align 4, !tbaa !36
  %7 = load ptr, ptr %5, align 8, !tbaa !55
  %8 = ptrtoint ptr %7 to i64
  %9 = load i32, ptr %6, align 4, !tbaa !36
  %10 = zext i32 %9 to i64
  %11 = shl i64 %10, 47
  %12 = or i64 %8, %11
  %13 = load ptr, ptr %4, align 8, !tbaa !20
  %14 = getelementptr inbounds nuw %struct.GCRef, ptr %13, i32 0, i32 0
  store i64 %12, ptr %14, align 8, !tbaa !22
  ret void
}

; Function Attrs: alwaysinline nounwind uwtable
define internal void @setgcV(ptr noundef %0, ptr noundef %1, ptr noundef %2, i32 noundef %3) #2 {
  %5 = alloca ptr, align 8
  %6 = alloca ptr, align 8
  %7 = alloca ptr, align 8
  %8 = alloca i32, align 4
  store ptr %0, ptr %5, align 8, !tbaa !4
  store ptr %1, ptr %6, align 8, !tbaa !20
  store ptr %2, ptr %7, align 8, !tbaa !55
  store i32 %3, ptr %8, align 4, !tbaa !36
  %9 = load ptr, ptr %6, align 8, !tbaa !20
  %10 = load ptr, ptr %7, align 8, !tbaa !55
  %11 = load i32, ptr %8, align 4, !tbaa !36
  call void @setgcVraw(ptr noundef %9, ptr noundef %10, i32 noundef %11)
  %12 = load ptr, ptr %5, align 8, !tbaa !4
  %13 = load ptr, ptr %6, align 8, !tbaa !20
  call void @checklivetv(ptr noundef %12, ptr noundef %13, ptr noundef @.str.7)
  ret void
}

; Function Attrs: alwaysinline nounwind uwtable
define internal void @setstrV(ptr noundef %0, ptr noundef %1, ptr noundef %2) #2 {
  %4 = alloca ptr, align 8
  %5 = alloca ptr, align 8
  %6 = alloca ptr, align 8
  store ptr %0, ptr %4, align 8, !tbaa !4
  store ptr %1, ptr %5, align 8, !tbaa !20
  store ptr %2, ptr %6, align 8, !tbaa !53
  %7 = load ptr, ptr %4, align 8, !tbaa !4
  %8 = load ptr, ptr %5, align 8, !tbaa !20
  %9 = load ptr, ptr %6, align 8, !tbaa !53
  call void @setgcV(ptr noundef %7, ptr noundef %8, ptr noundef %9, i32 noundef -5)
  ret void
}

; Function Attrs: nounwind uwtable
define internal i32 @io_file_readline(ptr noundef %0, ptr noundef %1, i32 noundef %2) #0 {
  %4 = alloca ptr, align 8
  %5 = alloca ptr, align 8
  %6 = alloca i32, align 4
  %7 = alloca i32, align 4
  %8 = alloca i32, align 4
  %9 = alloca i32, align 4
  %10 = alloca ptr, align 8
  store ptr %0, ptr %4, align 8, !tbaa !4
  store ptr %1, ptr %5, align 8, !tbaa !16
  store i32 %2, ptr %6, align 4, !tbaa !36
  call void @llvm.lifetime.start.p0(i64 4, ptr %7) #10
  store i32 8192, ptr %7, align 4, !tbaa !36
  call void @llvm.lifetime.start.p0(i64 4, ptr %8) #10
  store i32 0, ptr %8, align 4, !tbaa !36
  call void @llvm.lifetime.start.p0(i64 4, ptr %9) #10
  store i32 0, ptr %9, align 4, !tbaa !36
  call void @llvm.lifetime.start.p0(i64 8, ptr %10) #10
  br label %11

11:                                               ; preds = %62, %3
  %12 = load ptr, ptr %4, align 8, !tbaa !4
  %13 = load i32, ptr %7, align 4, !tbaa !36
  %14 = call ptr @lj_buf_tmp(ptr noundef %12, i32 noundef %13)
  store ptr %14, ptr %10, align 8, !tbaa !23
  %15 = load ptr, ptr %10, align 8, !tbaa !23
  %16 = load i32, ptr %8, align 4, !tbaa !36
  %17 = zext i32 %16 to i64
  %18 = getelementptr inbounds nuw i8, ptr %15, i64 %17
  %19 = load i32, ptr %7, align 4, !tbaa !36
  %20 = load i32, ptr %8, align 4, !tbaa !36
  %21 = sub i32 %19, %20
  %22 = load ptr, ptr %5, align 8, !tbaa !16
  %23 = call ptr @fgets(ptr noundef %18, i32 noundef %21, ptr noundef %22)
  %24 = icmp eq ptr %23, null
  br i1 %24, label %25, label %26

25:                                               ; preds = %11
  br label %63

26:                                               ; preds = %11
  %27 = load ptr, ptr %10, align 8, !tbaa !23
  %28 = load i32, ptr %8, align 4, !tbaa !36
  %29 = zext i32 %28 to i64
  %30 = getelementptr inbounds nuw i8, ptr %27, i64 %29
  %31 = call i64 @strlen(ptr noundef %30) #12
  %32 = trunc i64 %31 to i32
  %33 = load i32, ptr %8, align 4, !tbaa !36
  %34 = add i32 %33, %32
  store i32 %34, ptr %8, align 4, !tbaa !36
  %35 = load i32, ptr %8, align 4, !tbaa !36
  %36 = load i32, ptr %9, align 4, !tbaa !36
  %37 = or i32 %36, %35
  store i32 %37, ptr %9, align 4, !tbaa !36
  %38 = load i32, ptr %8, align 4, !tbaa !36
  %39 = icmp ne i32 %38, 0
  br i1 %39, label %40, label %53

40:                                               ; preds = %26
  %41 = load ptr, ptr %10, align 8, !tbaa !23
  %42 = load i32, ptr %8, align 4, !tbaa !36
  %43 = sub i32 %42, 1
  %44 = zext i32 %43 to i64
  %45 = getelementptr inbounds nuw i8, ptr %41, i64 %44
  %46 = load i8, ptr %45, align 1, !tbaa !22
  %47 = sext i8 %46 to i32
  %48 = icmp eq i32 %47, 10
  br i1 %48, label %49, label %53

49:                                               ; preds = %40
  %50 = load i32, ptr %6, align 4, !tbaa !36
  %51 = load i32, ptr %8, align 4, !tbaa !36
  %52 = sub i32 %51, %50
  store i32 %52, ptr %8, align 4, !tbaa !36
  br label %63

53:                                               ; preds = %40, %26
  %54 = load i32, ptr %8, align 4, !tbaa !36
  %55 = load i32, ptr %7, align 4, !tbaa !36
  %56 = sub i32 %55, 64
  %57 = icmp uge i32 %54, %56
  br i1 %57, label %58, label %62

58:                                               ; preds = %53
  %59 = load i32, ptr %7, align 4, !tbaa !36
  %60 = load i32, ptr %7, align 4, !tbaa !36
  %61 = add i32 %60, %59
  store i32 %61, ptr %7, align 4, !tbaa !36
  br label %62

62:                                               ; preds = %58, %53
  br label %11

63:                                               ; preds = %49, %25
  %64 = load ptr, ptr %4, align 8, !tbaa !4
  %65 = load ptr, ptr %4, align 8, !tbaa !4
  %66 = getelementptr inbounds nuw %struct.lua_State, ptr %65, i32 0, i32 8
  %67 = load ptr, ptr %66, align 8, !tbaa !9
  %68 = getelementptr inbounds nuw %union.TValue, ptr %67, i32 1
  store ptr %68, ptr %66, align 8, !tbaa !9
  %69 = load ptr, ptr %4, align 8, !tbaa !4
  %70 = load ptr, ptr %10, align 8, !tbaa !23
  %71 = load i32, ptr %8, align 4, !tbaa !36
  %72 = zext i32 %71 to i64
  %73 = call ptr @lj_str_new(ptr noundef %69, ptr noundef %70, i64 noundef %72)
  call void @setstrV(ptr noundef %64, ptr noundef %67, ptr noundef %73)
  %74 = load ptr, ptr %4, align 8, !tbaa !4
  %75 = getelementptr inbounds nuw %struct.lua_State, ptr %74, i32 0, i32 5
  %76 = getelementptr inbounds nuw %struct.MRef, ptr %75, i32 0, i32 0
  %77 = load i64, ptr %76, align 8, !tbaa !18
  %78 = inttoptr i64 %77 to ptr
  %79 = getelementptr inbounds nuw %struct.global_State, ptr %78, i32 0, i32 2
  %80 = getelementptr inbounds nuw %struct.GCState, ptr %79, i32 0, i32 0
  %81 = load i64, ptr %80, align 8, !tbaa !40
  %82 = load ptr, ptr %4, align 8, !tbaa !4
  %83 = getelementptr inbounds nuw %struct.lua_State, ptr %82, i32 0, i32 5
  %84 = getelementptr inbounds nuw %struct.MRef, ptr %83, i32 0, i32 0
  %85 = load i64, ptr %84, align 8, !tbaa !18
  %86 = inttoptr i64 %85 to ptr
  %87 = getelementptr inbounds nuw %struct.global_State, ptr %86, i32 0, i32 2
  %88 = getelementptr inbounds nuw %struct.GCState, ptr %87, i32 0, i32 1
  %89 = load i64, ptr %88, align 8, !tbaa !50
  %90 = icmp uge i64 %81, %89
  %91 = xor i1 %90, true
  %92 = xor i1 %91, true
  %93 = zext i1 %92 to i32
  %94 = sext i32 %93 to i64
  %95 = call i64 @llvm.expect.i64(i64 %94, i64 0)
  %96 = icmp ne i64 %95, 0
  br i1 %96, label %97, label %100

97:                                               ; preds = %63
  %98 = load ptr, ptr %4, align 8, !tbaa !4
  %99 = call i32 @lj_gc_step(ptr noundef %98)
  br label %100

100:                                              ; preds = %97, %63
  %101 = load i32, ptr %9, align 4, !tbaa !36
  call void @llvm.lifetime.end.p0(i64 8, ptr %10) #10
  call void @llvm.lifetime.end.p0(i64 4, ptr %9) #10
  call void @llvm.lifetime.end.p0(i64 4, ptr %8) #10
  call void @llvm.lifetime.end.p0(i64 4, ptr %7) #10
  ret i32 %101
}