; Function Attrs: nounwind uwtable
define internal fastcc i32 @io_file_readline(ptr noundef %0, ptr noundef captures(none) %1, i32 noundef range(i32 0, 2) %2) unnamed_addr #0 {
  %4 = tail call ptr @lj_buf_tmp(ptr noundef %0, i32 noundef 8192) #10
  %5 = tail call ptr @fgets(ptr noundef %4, i32 noundef 8192, ptr noundef %1)
  %6 = icmp eq ptr %5, null
  br i1 %6, label %.loopexit, label %.lr.ph

.lr.ph:                                           ; preds = %3, %21
  %7 = phi ptr [ %26, %21 ], [ %4, %3 ]
  %8 = phi ptr [ %24, %21 ], [ %4, %3 ]
  %.043 = phi i32 [ %spec.select, %21 ], [ 8192, %3 ]
  %.02942 = phi i32 [ %12, %21 ], [ 0, %3 ]
  %.03141 = phi i32 [ %11, %21 ], [ 0, %3 ]
  %9 = tail call i64 @strlen(ptr noundef nonnull dereferenceable(1) %7) #12
  %10 = trunc i64 %9 to i32
  %11 = add i32 %.03141, %10
  %12 = or i32 %11, %.02942
  %.not = icmp eq i32 %11, 0
  br i1 %.not, label %21, label %13

13:                                               ; preds = %.lr.ph
  %14 = add i32 %11, -1
  %15 = zext i32 %14 to i64
  %16 = getelementptr inbounds nuw i8, ptr %8, i64 %15
  %17 = load i8, ptr %16, align 1, !tbaa !14
  %18 = icmp eq i8 %17, 10
  br i1 %18, label %19, label %21

19:                                               ; preds = %13
  %20 = sub nuw i32 %11, %2
  br label %.loopexit

21:                                               ; preds = %13, %.lr.ph
  %22 = add i32 %.043, -64
  %.not34 = icmp uge i32 %11, %22
  %23 = zext i1 %.not34 to i32
  %spec.select = shl i32 %.043, %23
  %24 = tail call ptr @lj_buf_tmp(ptr noundef %0, i32 noundef %spec.select) #10
  %25 = zext i32 %11 to i64
  %26 = getelementptr inbounds nuw i8, ptr %24, i64 %25
  %27 = sub i32 %spec.select, %11
  %28 = tail call ptr @fgets(ptr noundef %26, i32 noundef %27, ptr noundef %1)
  %29 = icmp eq ptr %28, null
  br i1 %29, label %.loopexit, label %.lr.ph

.loopexit:                                        ; preds = %21, %3, %19
  %30 = phi ptr [ %8, %19 ], [ %4, %3 ], [ %24, %21 ]
  %.132 = phi i32 [ %20, %19 ], [ 0, %3 ], [ %11, %21 ]
  %.130 = phi i32 [ %12, %19 ], [ 0, %3 ], [ %12, %21 ]
  %31 = getelementptr inbounds nuw i8, ptr %0, i64 40
  %32 = load ptr, ptr %31, align 8, !tbaa !4
  %33 = getelementptr inbounds nuw i8, ptr %32, i64 8
  store ptr %33, ptr %31, align 8, !tbaa !4
  %34 = zext i32 %.132 to i64
  %35 = tail call ptr @lj_str_new(ptr noundef %0, ptr noundef %30, i64 noundef %34) #10
  %36 = ptrtoint ptr %35 to i64
  %37 = or i64 %36, -703687441776640
  store i64 %37, ptr %32, align 8, !tbaa !14
  %38 = getelementptr inbounds nuw i8, ptr %0, i64 16
  %39 = load i64, ptr %38, align 8, !tbaa !23
  %40 = inttoptr i64 %39 to ptr
  %41 = getelementptr inbounds nuw i8, ptr %40, i64 16
  %42 = load i64, ptr %41, align 8, !tbaa !31
  %43 = getelementptr inbounds nuw i8, ptr %40, i64 24
  %44 = load i64, ptr %43, align 8, !tbaa !42
  %.not35 = icmp ult i64 %42, %44
  br i1 %.not35, label %47, label %45, !prof !43

45:                                               ; preds = %.loopexit
  %46 = tail call i32 @lj_gc_step(ptr noundef nonnull %0) #10
  br label %47

47:                                               ; preds = %45, %.loopexit
  ret i32 %.130
}